; Function Attrs: mustprogress uwtable
define hidden void @_ZN5model11updt_paramsERK10params_ref(ptr noundef nonnull align 8 dereferenceable(160) %this, ptr noundef nonnull align 8 dereferenceable(8) %p) local_unnamed_addr #3 align 2 personality ptr @__gxx_personality_v0 {
entry:
  %mp = alloca %struct.model_params, align 8
  store ptr %p, ptr %mp, align 8
  %g.i = getelementptr inbounds i8, ptr %mp, i64 8
  call void @_ZN7gparams10get_moduleEPKc(ptr nonnull sret(%class.params_ref) align 8 %g.i, ptr noundef nonnull @.str)
  %0 = load ptr, ptr %mp, align 8
  %call.i3 = invoke noundef zeroext i1 @_ZNK10params_ref8get_boolEPKcRKS_b(ptr noundef nonnull align 8 dereferenceable(8) %0, ptr noundef nonnull @.str.1, ptr noundef nonnull align 8 dereferenceable(8) %g.i, i1 noundef zeroext false)
          to label %invoke.cont unwind label %lpad

invoke.cont:                                      ; preds = %entry
  %m_inline = getelementptr inbounds i8, ptr %this, i64 137
  %frombool = zext i1 %call.i3 to i8
  store i8 %frombool, ptr %m_inline, align 1
  %m_mev = getelementptr inbounds i8, ptr %this, i64 128
  invoke void @_ZN15model_evaluator11updt_paramsERK10params_ref(ptr noundef nonnull align 8 dereferenceable(8) %m_mev, ptr noundef nonnull align 8 dereferenceable(8) %p)
          to label %invoke.cont2 unwind label %lpad

invoke.cont2:                                     ; preds = %invoke.cont
  call void @_ZN10params_refD1Ev(ptr noundef nonnull align 8 dereferenceable(8) %g.i) #19
  ret void

lpad:                                             ; preds = %entry, %invoke.cont
  %1 = landingpad { ptr, i32 }
          cleanup
  call void @_ZN10params_refD1Ev(ptr noundef nonnull align 8 dereferenceable(8) %g.i) #19
  resume { ptr, i32 } %1
}